#include <math.h>
#include <stdio.h>
#include <stdlib.h>
#include <string.h>

int main()
{
	double xgx,n;
	scanf("%lf",&xgx);
	int i,j,k,l=0,m=0;
	char jy1[10086],jy2[10086];
	scanf("%s",jy1);
	scanf("%s",jy2);
	j=strlen(jy1);
	k=strlen(jy2);
	jy1[j]='\0';
	jy2[k]='\0';
	if(j!=k){
		printf("error\n");
	}
	else{
		for(i=0;i<j;i++){
			if(((jy1[i]!='A')&&(jy1[i]!='T')&&(jy1[i]!='C')&&(jy1[i]!='G'))||((jy2[i]!='A')&&(jy2[i]!='T')&&(jy2[i]!='C')&&(jy2[i]!='G'))){
				l++;
			}
		}
			if(l!=0){
				printf("error\n");
			}
			else{
				for(i=0;i<j;i++){
					if(jy1[i]==jy2[i]){
						m++;
					}
				}
			n=1.0*m/j;
			if(n>xgx){
				printf("yes\n");
			}
			else{
				printf("no\n");
			}
			}
	}
	return 0;
}